target datalayout = "e-m:e-p270:32:32-p271:32:32-p272:64:64-i64:64-i128:128-f80:128-n8:16:32:64-S128"
target triple = "x86_64-pc-linux-gnu"

%struct.Vec_Str_t_ = type { i32, i32, ptr }

; Function Attrs: nounwind uwtable
define internal void @Vec_StrGrow(ptr noundef %0, i32 noundef %1) #0 {
  %3 = alloca ptr, align 8
  %4 = alloca i32, align 4
  store ptr %0, ptr %3, align 8
  store i32 %1, ptr %4, align 4
  %5 = load ptr, ptr %3, align 8
  %6 = getelementptr inbounds %struct.Vec_Str_t_, ptr %5, i32 0, i32 0
  %7 = load i32, ptr %6, align 8
  %8 = load i32, ptr %4, align 4
  %9 = icmp sge i32 %7, %8
  br i1 %9, label %10, label %11

10:                                               ; preds = %2
  br label %36

11:                                               ; preds = %2
  %12 = load ptr, ptr %3, align 8
  %13 = getelementptr inbounds %struct.Vec_Str_t_, ptr %12, i32 0, i32 2
  %14 = load ptr, ptr %13, align 8
  %15 = icmp ne ptr %14, null
  br i1 %15, label %16, label %24

16:                                               ; preds = %11
  %17 = load ptr, ptr %3, align 8
  %18 = getelementptr inbounds %struct.Vec_Str_t_, ptr %17, i32 0, i32 2
  %19 = load ptr, ptr %18, align 8
  %20 = load i32, ptr %4, align 4
  %21 = sext i32 %20 to i64
  %22 = mul i64 1, %21
  %23 = call ptr @realloc(ptr noundef %19, i64 noundef %22) #14
  br label %29

24:                                               ; preds = %11
  %25 = load i32, ptr %4, align 4
  %26 = sext i32 %25 to i64
  %27 = mul i64 1, %26
  %28 = call noalias ptr @malloc(i64 noundef %27) #11
  br label %29

29:                                               ; preds = %24, %16
  %30 = phi ptr [ %23, %16 ], [ %28, %24 ]
  %31 = load ptr, ptr %3, align 8
  %32 = getelementptr inbounds %struct.Vec_Str_t_, ptr %31, i32 0, i32 2
  store ptr %30, ptr %32, align 8
  %33 = load i32, ptr %4, align 4
  %34 = load ptr, ptr %3, align 8
  %35 = getelementptr inbounds %struct.Vec_Str_t_, ptr %34, i32 0, i32 0
  store i32 %33, ptr %35, align 8
  br label %36

36:                                               ; preds = %29, %10
  ret void
}

; Function Attrs: nounwind uwtable
define internal void @Vec_StrPush(ptr noundef %0, i8 noundef signext %1) #0 {
  %3 = alloca ptr, align 8
  %4 = alloca i8, align 1
  store ptr %0, ptr %3, align 8
  store i8 %1, ptr %4, align 1
  %5 = load ptr, ptr %3, align 8
  %6 = getelementptr inbounds %struct.Vec_Str_t_, ptr %5, i32 0, i32 1
  %7 = load i32, ptr %6, align 4
  %8 = load ptr, ptr %3, align 8
  %9 = getelementptr inbounds %struct.Vec_Str_t_, ptr %8, i32 0, i32 0
  %10 = load i32, ptr %9, align 8
  %11 = icmp eq i32 %7, %10
  br i1 %11, label %12, label %26

12:                                               ; preds = %2
  %13 = load ptr, ptr %3, align 8
  %14 = getelementptr inbounds %struct.Vec_Str_t_, ptr %13, i32 0, i32 0
  %15 = load i32, ptr %14, align 8
  %16 = icmp slt i32 %15, 16
  br i1 %16, label %17, label %19

17:                                               ; preds = %12
  %18 = load ptr, ptr %3, align 8
  call void @Vec_StrGrow(ptr noundef %18, i32 noundef 16)
  br label %25

19:                                               ; preds = %12
  %20 = load ptr, ptr %3, align 8
  %21 = load ptr, ptr %3, align 8
  %22 = getelementptr inbounds %struct.Vec_Str_t_, ptr %21, i32 0, i32 0
  %23 = load i32, ptr %22, align 8
  %24 = mul nsw i32 2, %23
  call void @Vec_StrGrow(ptr noundef %20, i32 noundef %24)
  br label %25

25:                                               ; preds = %19, %17
  br label %26

26:                                               ; preds = %25, %2
  %27 = load i8, ptr %4, align 1
  %28 = load ptr, ptr %3, align 8
  %29 = getelementptr inbounds %struct.Vec_Str_t_, ptr %28, i32 0, i32 2
  %30 = load ptr, ptr %29, align 8
  %31 = load ptr, ptr %3, align 8
  %32 = getelementptr inbounds %struct.Vec_Str_t_, ptr %31, i32 0, i32 1
  %33 = load i32, ptr %32, align 4
  %34 = add nsw i32 %33, 1
  store i32 %34, ptr %32, align 4
  %35 = sext i32 %33 to i64
  %36 = getelementptr inbounds i8, ptr %30, i64 %35
  store i8 %27, ptr %36, align 1
  ret void
}

; Function Attrs: nounwind uwtable
define internal ptr @Vec_StrAlloc(i32 noundef %0) #0 {
  %2 = alloca i32, align 4
  %3 = alloca ptr, align 8
  store i32 %0, ptr %2, align 4
  %4 = call noalias ptr @malloc(i64 noundef 16) #11
  store ptr %4, ptr %3, align 8
  %5 = load i32, ptr %2, align 4
  %6 = icmp sgt i32 %5, 0
  br i1 %6, label %7, label %11

7:                                                ; preds = %1
  %8 = load i32, ptr %2, align 4
  %9 = icmp slt i32 %8, 16
  br i1 %9, label %10, label %11

10:                                               ; preds = %7
  store i32 16, ptr %2, align 4
  br label %11

11:                                               ; preds = %10, %7, %1
  %12 = load ptr, ptr %3, align 8
  %13 = getelementptr inbounds %struct.Vec_Str_t_, ptr %12, i32 0, i32 1
  store i32 0, ptr %13, align 4
  %14 = load i32, ptr %2, align 4
  %15 = load ptr, ptr %3, align 8
  %16 = getelementptr inbounds %struct.Vec_Str_t_, ptr %15, i32 0, i32 0
  store i32 %14, ptr %16, align 8
  %17 = load ptr, ptr %3, align 8
  %18 = getelementptr inbounds %struct.Vec_Str_t_, ptr %17, i32 0, i32 0
  %19 = load i32, ptr %18, align 8
  %20 = icmp ne i32 %19, 0
  br i1 %20, label %21, label %28

21:                                               ; preds = %11
  %22 = load ptr, ptr %3, align 8
  %23 = getelementptr inbounds %struct.Vec_Str_t_, ptr %22, i32 0, i32 0
  %24 = load i32, ptr %23, align 8
  %25 = sext i32 %24 to i64
  %26 = mul i64 1, %25
  %27 = call noalias ptr @malloc(i64 noundef %26) #11
  br label %29

28:                                               ; preds = %11
  br label %29

29:                                               ; preds = %28, %21
  %30 = phi ptr [ %27, %21 ], [ null, %28 ]
  %31 = load ptr, ptr %3, align 8
  %32 = getelementptr inbounds %struct.Vec_Str_t_, ptr %31, i32 0, i32 2
  store ptr %30, ptr %32, align 8
  %33 = load ptr, ptr %3, align 8
  ret ptr %33
}

; Function Attrs: nounwind uwtable
define ptr @Gls_ManCount(ptr noundef %0, ptr noundef %1) #0 {
  %3 = alloca ptr, align 8
  %4 = alloca ptr, align 8
  %5 = alloca ptr, align 8
  %6 = alloca ptr, align 8
  %7 = alloca i32, align 4
  %8 = alloca ptr, align 8
  store ptr %0, ptr %3, align 8
  store ptr %1, ptr %4, align 8
  %9 = call noalias ptr @malloc(i64 noundef 1000000) #11
  store ptr %9, ptr %6, align 8
  %10 = call ptr @Vec_StrAlloc(i32 noundef 10000)
  store ptr %10, ptr %8, align 8
  %11 = load ptr, ptr %4, align 8
  call void @llvm.memset.p0.i64(ptr align 4 %11, i8 0, i64 44, i1 false)
  br label %12

12:                                               ; preds = %139, %2
  %13 = load ptr, ptr %6, align 8
  %14 = load ptr, ptr %3, align 8
  %15 = call ptr @fgets(ptr noundef %13, i32 noundef 1000000, ptr noundef %14)
  %16 = icmp ne ptr %15, null
  br i1 %16, label %17, label %149

17:                                               ; preds = %12
  %18 = load ptr, ptr %6, align 8
  store ptr %18, ptr %5, align 8
  br label %19

19:                                               ; preds = %30, %17
  %20 = load ptr, ptr %5, align 8
  %21 = load i8, ptr %20, align 1
  %22 = icmp ne i8 %21, 0
  br i1 %22, label %23, label %31

23:                                               ; preds = %19
  %24 = load ptr, ptr %5, align 8
  %25 = getelementptr inbounds i8, ptr %24, i32 1
  store ptr %25, ptr %5, align 8
  %26 = load i8, ptr %24, align 1
  %27 = sext i8 %26 to i32
  %28 = icmp eq i32 %27, 61
  br i1 %28, label %29, label %30

29:                                               ; preds = %23
  br label %31

30:                                               ; preds = %23
  br label %19, !llvm.loop !4

31:                                               ; preds = %29, %19
  br label %32

32:                                               ; preds = %37, %31
  %33 = load ptr, ptr %5, align 8
  %34 = load i8, ptr %33, align 1
  %35 = sext i8 %34 to i32
  %36 = icmp eq i32 %35, 32
  br i1 %36, label %37, label %40

37:                                               ; preds = %32
  %38 = load ptr, ptr %5, align 8
  %39 = getelementptr inbounds i8, ptr %38, i32 1
  store ptr %39, ptr %5, align 8
  br label %32, !llvm.loop !6

40:                                               ; preds = %32
  %41 = load ptr, ptr %5, align 8
  %42 = load i8, ptr %41, align 1
  %43 = sext i8 %42 to i32
  %44 = icmp eq i32 %43, 76
  br i1 %44, label %45, label %62

45:                                               ; preds = %40
  %46 = load ptr, ptr %5, align 8
  %47 = getelementptr inbounds i8, ptr %46, i64 3
  %48 = load i8, ptr %47, align 1
  %49 = sext i8 %48 to i32
  %50 = icmp eq i32 %49, 52
  br i1 %50, label %51, label %52

51:                                               ; preds = %45
  store i32 7, ptr %7, align 4
  br label %61

52:                                               ; preds = %45
  %53 = load ptr, ptr %5, align 8
  %54 = getelementptr inbounds i8, ptr %53, i64 3
  %55 = load i8, ptr %54, align 1
  %56 = sext i8 %55 to i32
  %57 = icmp eq i32 %56, 54
  br i1 %57, label %58, label %59

58:                                               ; preds = %52
  store i32 8, ptr %7, align 4
  br label %60

59:                                               ; preds = %52
  br label %60

60:                                               ; preds = %59, %58
  br label %61

61:                                               ; preds = %60, %51
  br label %139

62:                                               ; preds = %40
  %63 = load ptr, ptr %5, align 8
  %64 = load i8, ptr %63, align 1
  %65 = sext i8 %64 to i32
  %66 = icmp eq i32 %65, 80
  br i1 %66, label %67, label %84

67:                                               ; preds = %62
  %68 = load ptr, ptr %5, align 8
  %69 = getelementptr inbounds i8, ptr %68, i64 1
  %70 = load i8, ptr %69, align 1
  %71 = sext i8 %70 to i32
  %72 = icmp eq i32 %71, 73
  br i1 %72, label %73, label %74

73:                                               ; preds = %67
  store i32 2, ptr %7, align 4
  br label %83

74:                                               ; preds = %67
  %75 = load ptr, ptr %5, align 8
  %76 = getelementptr inbounds i8, ptr %75, i64 1
  %77 = load i8, ptr %76, align 1
  %78 = sext i8 %77 to i32
  %79 = icmp eq i32 %78, 79
  br i1 %79, label %80, label %81

80:                                               ; preds = %74
  store i32 3, ptr %7, align 4
  br label %82

81:                                               ; preds = %74
  br label %82

82:                                               ; preds = %81, %80
  br label %83

83:                                               ; preds = %82, %73
  br label %138

84:                                               ; preds = %62
  %85 = load ptr, ptr %5, align 8
  %86 = load i8, ptr %85, align 1
  %87 = sext i8 %86 to i32
  %88 = icmp eq i32 %87, 66
  br i1 %88, label %89, label %106

89:                                               ; preds = %84
  %90 = load ptr, ptr %5, align 8
  %91 = getelementptr inbounds i8, ptr %90, i64 1
  %92 = load i8, ptr %91, align 1
  %93 = sext i8 %92 to i32
  %94 = icmp eq i32 %93, 111
  br i1 %94, label %95, label %96

95:                                               ; preds = %89
  store i32 9, ptr %7, align 4
  br label %105

96:                                               ; preds = %89
  %97 = load ptr, ptr %5, align 8
  %98 = getelementptr inbounds i8, ptr %97, i64 1
  %99 = load i8, ptr %98, align 1
  %100 = sext i8 %99 to i32
  %101 = icmp eq i32 %100, 97
  br i1 %101, label %102, label %103

102:                                              ; preds = %96
  store i32 4, ptr %7, align 4
  br label %104

103:                                              ; preds = %96
  br label %104

104:                                              ; preds = %103, %102
  br label %105

105:                                              ; preds = %104, %95
  br label %137

106:                                              ; preds = %84
  %107 = load ptr, ptr %5, align 8
  %108 = load i8, ptr %107, align 1
  %109 = sext i8 %108 to i32
  %110 = icmp eq i32 %109, 83
  br i1 %110, label %111, label %128

111:                                              ; preds = %106
  %112 = load ptr, ptr %5, align 8
  %113 = getelementptr inbounds i8, ptr %112, i64 2
  %114 = load i8, ptr %113, align 1
  %115 = sext i8 %114 to i32
  %116 = icmp eq i32 %115, 108
  br i1 %116, label %117, label %118

117:                                              ; preds = %111
  store i32 6, ptr %7, align 4
  br label %127

118:                                              ; preds = %111
  %119 = load ptr, ptr %5, align 8
  %120 = getelementptr inbounds i8, ptr %119, i64 2
  %121 = load i8, ptr %120, align 1
  %122 = sext i8 %121 to i32
  %123 = icmp eq i32 %122, 113
  br i1 %123, label %124, label %125

124:                                              ; preds = %118
  store i32 5, ptr %7, align 4
  br label %126

125:                                              ; preds = %118
  br label %126

126:                                              ; preds = %125, %124
  br label %127

127:                                              ; preds = %126, %117
  br label %136

128:                                              ; preds = %106
  %129 = load ptr, ptr %5, align 8
  %130 = load i8, ptr %129, align 1
  %131 = sext i8 %130 to i32
  %132 = icmp eq i32 %131, 68
  br i1 %132, label %133, label %134

133:                                              ; preds = %128
  store i32 10, ptr %7, align 4
  br label %135

134:                                              ; preds = %128
  br label %135

135:                                              ; preds = %134, %133
  br label %136

136:                                              ; preds = %135, %127
  br label %137

137:                                              ; preds = %136, %105
  br label %138

138:                                              ; preds = %137, %83
  br label %139

139:                                              ; preds = %138, %61
  %140 = load ptr, ptr %8, align 8
  %141 = load i32, ptr %7, align 4
  %142 = trunc i32 %141 to i8
  call void @Vec_StrPush(ptr noundef %140, i8 noundef signext %142)
  %143 = load ptr, ptr %4, align 8
  %144 = load i32, ptr %7, align 4
  %145 = sext i32 %144 to i64
  %146 = getelementptr inbounds i32, ptr %143, i64 %145
  %147 = load i32, ptr %146, align 4
  %148 = add nsw i32 %147, 1
  store i32 %148, ptr %146, align 4
  br label %12, !llvm.loop !7

149:                                              ; preds = %12
  %150 = load ptr, ptr %6, align 8
  %151 = icmp ne ptr %150, null
  br i1 %151, label %152, label %154

152:                                              ; preds = %149
  %153 = load ptr, ptr %6, align 8
  call void @free(ptr noundef %153) #12
  store ptr null, ptr %6, align 8
  br label %155

154:                                              ; preds = %149
  br label %155

155:                                              ; preds = %154, %152
  %156 = load ptr, ptr %8, align 8
  ret ptr %156
}