; Function Attrs: nounwind uwtable
define noalias noundef ptr @Gls_ManCount(ptr noundef captures(none) %0, ptr noundef captures(none) initializes((0, 44)) %1) local_unnamed_addr #2 {
  %3 = tail call noalias dereferenceable_or_null(1000000) ptr @malloc(i64 noundef 1000000) #23
  %4 = tail call noalias dereferenceable_or_null(16) ptr @malloc(i64 noundef 16) #23
  %5 = getelementptr inbounds nuw i8, ptr %4, i64 4
  store i32 0, ptr %5, align 4
  store i32 10000, ptr %4, align 8
  %6 = tail call noalias dereferenceable_or_null(10000) ptr @malloc(i64 noundef 10000) #23
  %7 = getelementptr inbounds nuw i8, ptr %4, i64 8
  store ptr %6, ptr %7, align 8
  tail call void @llvm.memset.p0.i64(ptr noundef nonnull align 4 dereferenceable(44) %1, i8 0, i64 44, i1 false)
  %8 = tail call ptr @fgets(ptr noundef %3, i32 noundef 1000000, ptr noundef %0)
  %.not46 = icmp eq ptr %8, null
  br i1 %.not46, label %._crit_edge, label %.preheader

.preheader:                                       ; preds = %2, %Vec_StrPush.exit
  %.02747 = phi i32 [ %.128, %Vec_StrPush.exit ], [ undef, %2 ]
  br label %9

9:                                                ; preds = %.preheader, %11
  %.0 = phi ptr [ %12, %11 ], [ %3, %.preheader ]
  %10 = load i8, ptr %.0, align 1
  %.not37 = icmp eq i8 %10, 0
  br i1 %.not37, label %.preheader65, label %11

11:                                               ; preds = %9
  %12 = getelementptr inbounds nuw i8, ptr %.0, i64 1
  %13 = icmp eq i8 %10, 61
  br i1 %13, label %.preheader65, label %9, !llvm.loop !6

.preheader65:                                     ; preds = %11, %9
  %.2.ph = phi ptr [ %.0, %9 ], [ %12, %11 ]
  br label %14

14:                                               ; preds = %.preheader65, %16
  %.2 = phi ptr [ %17, %16 ], [ %.2.ph, %.preheader65 ]
  %15 = load i8, ptr %.2, align 1
  switch i8 %15, label %.loopexit.loopexit [
    i8 32, label %16
    i8 76, label %18
    i8 80, label %22
    i8 66, label %26
    i8 83, label %30
    i8 68, label %.loopexit
  ]

16:                                               ; preds = %14
  %17 = getelementptr inbounds nuw i8, ptr %.2, i64 1
  br label %14, !llvm.loop !7

18:                                               ; preds = %14
  %19 = getelementptr inbounds nuw i8, ptr %.2, i64 3
  %20 = load i8, ptr %19, align 1
  switch i8 %20, label %.fold.split [
    i8 52, label %.loopexit
    i8 54, label %21
  ]

21:                                               ; preds = %18
  br label %.loopexit

22:                                               ; preds = %14
  %23 = getelementptr inbounds nuw i8, ptr %.2, i64 1
  %24 = load i8, ptr %23, align 1
  switch i8 %24, label %.fold.split38 [
    i8 73, label %.loopexit
    i8 79, label %25
  ]

25:                                               ; preds = %22
  br label %.loopexit

26:                                               ; preds = %14
  %27 = getelementptr inbounds nuw i8, ptr %.2, i64 1
  %28 = load i8, ptr %27, align 1
  switch i8 %28, label %.fold.split39 [
    i8 111, label %.loopexit
    i8 97, label %29
  ]

29:                                               ; preds = %26
  br label %.loopexit

30:                                               ; preds = %14
  %31 = getelementptr inbounds nuw i8, ptr %.2, i64 2
  %32 = load i8, ptr %31, align 1
  switch i8 %32, label %.fold.split40 [
    i8 108, label %.loopexit
    i8 113, label %33
  ]

33:                                               ; preds = %30
  br label %.loopexit

.fold.split:                                      ; preds = %18
  br label %.loopexit

.fold.split38:                                    ; preds = %22
  br label %.loopexit

.fold.split39:                                    ; preds = %26
  br label %.loopexit

.fold.split40:                                    ; preds = %30
  br label %.loopexit

.loopexit.loopexit:                               ; preds = %14
  br label %.loopexit

.loopexit:                                        ; preds = %14, %.loopexit.loopexit, %30, %.fold.split40, %26, %.fold.split39, %22, %.fold.split38, %18, %.fold.split, %25, %33, %29, %21
  %.128 = phi i32 [ 8, %21 ], [ 3, %25 ], [ 4, %29 ], [ 5, %33 ], [ 7, %18 ], [ %.02747, %.fold.split ], [ 2, %22 ], [ %.02747, %.fold.split38 ], [ 9, %26 ], [ %.02747, %.fold.split39 ], [ 6, %30 ], [ %.02747, %.fold.split40 ], [ %.02747, %.loopexit.loopexit ], [ 10, %14 ]
  %34 = trunc i32 %.128 to i8
  %35 = load i32, ptr %5, align 4
  %36 = load i32, ptr %4, align 8
  %37 = icmp eq i32 %35, %36
  br i1 %37, label %38, label %.Vec_StrGrow.exit10_crit_edge.i

.Vec_StrGrow.exit10_crit_edge.i:                  ; preds = %.loopexit
  %.pre.i = load ptr, ptr %7, align 8
  br label %Vec_StrPush.exit

38:                                               ; preds = %.loopexit
  %39 = icmp slt i32 %35, 16
  br i1 %39, label %40, label %47

40:                                               ; preds = %38
  %41 = load ptr, ptr %7, align 8
  %.not9.i.i = icmp eq ptr %41, null
  br i1 %.not9.i.i, label %44, label %42

42:                                               ; preds = %40
  %43 = tail call dereferenceable_or_null(16) ptr @realloc(ptr noundef nonnull %41, i64 noundef 16) #25
  br label %Vec_StrGrow.exit.i

44:                                               ; preds = %40
  %45 = tail call noalias dereferenceable_or_null(16) ptr @malloc(i64 noundef 16) #23
  br label %Vec_StrGrow.exit.i

Vec_StrGrow.exit.i:                               ; preds = %44, %42
  %46 = phi ptr [ %43, %42 ], [ %45, %44 ]
  store ptr %46, ptr %7, align 8
  store i32 16, ptr %4, align 8
  br label %Vec_StrPush.exit

47:                                               ; preds = %38
  %48 = shl nuw nsw i32 %35, 1
  %49 = load ptr, ptr %7, align 8
  %.not9.i9.i = icmp eq ptr %49, null
  %50 = zext nneg i32 %48 to i64
  br i1 %.not9.i9.i, label %53, label %51

51:                                               ; preds = %47
  %52 = tail call ptr @realloc(ptr noundef nonnull %49, i64 noundef %50) #25
  br label %55

53:                                               ; preds = %47
  %54 = tail call noalias ptr @malloc(i64 noundef %50) #23
  br label %55

55:                                               ; preds = %53, %51
  %56 = phi ptr [ %52, %51 ], [ %54, %53 ]
  store ptr %56, ptr %7, align 8
  store i32 %48, ptr %4, align 8
  br label %Vec_StrPush.exit

Vec_StrPush.exit:                                 ; preds = %.Vec_StrGrow.exit10_crit_edge.i, %Vec_StrGrow.exit.i, %55
  %57 = phi ptr [ %.pre.i, %.Vec_StrGrow.exit10_crit_edge.i ], [ %56, %55 ], [ %46, %Vec_StrGrow.exit.i ]
  %58 = add nsw i32 %35, 1
  store i32 %58, ptr %5, align 4
  %59 = sext i32 %35 to i64
  %60 = getelementptr inbounds i8, ptr %57, i64 %59
  store i8 %34, ptr %60, align 1
  %61 = sext i32 %.128 to i64
  %62 = getelementptr inbounds i32, ptr %1, i64 %61
  %63 = load i32, ptr %62, align 4
  %64 = add nsw i32 %63, 1
  store i32 %64, ptr %62, align 4
  %65 = tail call ptr @fgets(ptr noundef %3, i32 noundef 1000000, ptr noundef %0)
  %.not = icmp eq ptr %65, null
  br i1 %.not, label %._crit_edge, label %.preheader, !llvm.loop !8

._crit_edge:                                      ; preds = %Vec_StrPush.exit, %2
  %.not36 = icmp eq ptr %3, null
  br i1 %.not36, label %67, label %66

66:                                               ; preds = %._crit_edge
  tail call void @free(ptr noundef nonnull %3) #24
  br label %67

67:                                               ; preds = %._crit_edge, %66
  ret ptr %4
}